; Function Attrs: mustprogress nounwind uwtable
define void @_ZNK4pkpy8ArgsView7to_listEv(ptr dead_on_unwind noalias nocapture writable writeonly sret(%"struct.pkpy::pod_vector") align 8 %0, ptr nocapture noundef nonnull readonly align 8 dereferenceable(16) %1) local_unnamed_addr #3 align 2 personality ptr @__gxx_personality_v0 {
  %3 = getelementptr inbounds i8, ptr %1, i64 8
  %4 = load ptr, ptr %3, align 8
  %5 = load ptr, ptr %1, align 8
  %6 = ptrtoint ptr %4 to i64
  %7 = ptrtoint ptr %5 to i64
  %8 = sub i64 %6, %7
  %9 = lshr exact i64 %8, 3
  %10 = trunc i64 %9 to i32
  store i32 %10, ptr %0, align 8
  %11 = getelementptr inbounds i8, ptr %0, i64 4
  %.sroa.speculated.i = tail call i32 @llvm.smax.i32(i32 %10, i32 8)
  store i32 %.sroa.speculated.i, ptr %11, align 4
  %12 = shl nsw i32 %.sroa.speculated.i, 3
  %13 = zext nneg i32 %12 to i64
  %14 = tail call noundef ptr @_ZN4pkpy12pool64_allocEm(i64 noundef %13) #10
  %15 = getelementptr inbounds i8, ptr %0, i64 8
  store ptr %14, ptr %15, align 8
  %16 = load ptr, ptr %3, align 8
  %17 = load ptr, ptr %1, align 8
  %18 = ptrtoint ptr %16 to i64
  %19 = ptrtoint ptr %17 to i64
  %20 = sub i64 %18, %19
  %21 = lshr exact i64 %20, 3
  %22 = trunc i64 %21 to i32
  %23 = icmp sgt i32 %22, 0
  br i1 %23, label %.lr.ph, label %._crit_edge

.lr.ph:                                           ; preds = %2, %.lr.ph
  %indvars.iv = phi i64 [ %indvars.iv.next, %.lr.ph ], [ 0, %2 ]
  %24 = phi ptr [ %29, %.lr.ph ], [ %17, %2 ]
  %25 = getelementptr inbounds ptr, ptr %24, i64 %indvars.iv
  %26 = load ptr, ptr %25, align 8
  %27 = getelementptr inbounds ptr, ptr %14, i64 %indvars.iv
  store ptr %26, ptr %27, align 8
  %indvars.iv.next = add nuw nsw i64 %indvars.iv, 1
  %28 = load ptr, ptr %3, align 8
  %29 = load ptr, ptr %1, align 8
  %30 = ptrtoint ptr %28 to i64
  %31 = ptrtoint ptr %29 to i64
  %32 = sub i64 %30, %31
  %sext = shl i64 %32, 29
  %33 = ashr i64 %sext, 32
  %34 = icmp slt i64 %indvars.iv.next, %33
  br i1 %34, label %.lr.ph, label %._crit_edge, !llvm.loop !7

._crit_edge:                                      ; preds = %.lr.ph, %2
  ret void
}